target datalayout = "e-m:e-p270:32:32-p271:32:32-p272:64:64-i64:64-i128:128-f80:128-n8:16:32:64-S128"
target triple = "x86_64-unknown-linux-gnu"

%"class.std::set.0" = type { %"class.std::_Rb_tree.1" }
%"class.std::_Rb_tree.1" = type { %"struct.std::_Rb_tree<QuantLib::Observer *, QuantLib::Observer *, std::_Identity<QuantLib::Observer *>, std::less<QuantLib::Observer *>>::_Rb_tree_impl" }
%"struct.std::_Rb_tree<QuantLib::Observer *, QuantLib::Observer *, std::_Identity<QuantLib::Observer *>, std::less<QuantLib::Observer *>>::_Rb_tree_impl" = type { [8 x i8], %"struct.std::_Rb_tree_header" }
%"struct.std::_Rb_tree_header" = type { %"struct.std::_Rb_tree_node_base", i64 }
%"struct.std::_Rb_tree_node_base" = type { i32, ptr, ptr, ptr }
%"class.std::set" = type { %"class.std::_Rb_tree" }
%"class.std::_Rb_tree" = type { %"struct.std::_Rb_tree<boost::shared_ptr<QuantLib::Observable>, boost::shared_ptr<QuantLib::Observable>, std::_Identity<boost::shared_ptr<QuantLib::Observable>>, std::less<boost::shared_ptr<QuantLib::Observable>>>::_Rb_tree_impl" }
%"struct.std::_Rb_tree<boost::shared_ptr<QuantLib::Observable>, boost::shared_ptr<QuantLib::Observable>, std::_Identity<boost::shared_ptr<QuantLib::Observable>>, std::less<boost::shared_ptr<QuantLib::Observable>>>::_Rb_tree_impl" = type { [8 x i8], %"struct.std::_Rb_tree_header" }
%"class.boost::detail::shared_count" = type { ptr }
%"class.QuantLib::Observable" = type { ptr, %"class.std::set.0" }
%"class.QuantLib::Observer" = type { ptr, %"class.std::set" }
%"class.boost::shared_ptr.20" = type { ptr, %"class.boost::detail::shared_count" }
%"class.QuantLib::Date" = type { i64 }
%"class.QuantLib::ZeroInflationCashFlow" = type { %"class.QuantLib::IndexedCashFlow.base", %"class.boost::shared_ptr.21", i32, %"class.QuantLib::Date", %"class.QuantLib::Date", %"class.QuantLib::Period", %"class.QuantLib::Observable", %"class.QuantLib::Observer" }
%"class.QuantLib::IndexedCashFlow.base" = type <{ %"class.QuantLib::CashFlow.base", [4 x i8], double, double, %"class.boost::shared_ptr.20", %"class.QuantLib::Date", %"class.QuantLib::Date", %"class.QuantLib::Date", i8 }>
%"class.QuantLib::CashFlow.base" = type <{ %"class.QuantLib::Event.base", %"class.QuantLib::LazyObject.base" }>
%"class.QuantLib::Event.base" = type { ptr }
%"class.QuantLib::LazyObject.base" = type <{ ptr, i8, i8, i8, i8 }>
%"class.boost::shared_ptr.21" = type { ptr, %"class.boost::detail::shared_count" }
%"class.QuantLib::Period" = type { i32, i32 }
%"class.QuantLib::IndexedCashFlow" = type <{ %"class.QuantLib::CashFlow.base", [4 x i8], double, double, %"class.boost::shared_ptr.20", %"class.QuantLib::Date", %"class.QuantLib::Date", %"class.QuantLib::Date", i8, [7 x i8], %"class.QuantLib::Observable", %"class.QuantLib::Observer" }>

@.str.5 = private unnamed_addr constant [8 x i8] c"px != 0\00", align 1
@.str.6 = private unnamed_addr constant [102 x i8] c"generated/home/dtcxzyw/WorkSpace/SDK/vcpkg/installed/x64-linux/include/boost/smart_ptr/shared_ptr.hpp\00", align 1
@__PRETTY_FUNCTION__._ZNK5boost10shared_ptrIN8QuantLib18ZeroInflationIndexEEptEv = private unnamed_addr constant [153 x i8] c"typename boost::detail::sp_member_access<T>::type boost::shared_ptr<QuantLib::ZeroInflationIndex>::operator->() const [T = QuantLib::ZeroInflationIndex]\00", align 1

; Function Attrs: mustprogress uwtable
define linkonce_odr noundef ptr @_ZNK5boost10shared_ptrIN8QuantLib18ZeroInflationIndexEEptEv(ptr noundef nonnull align 8 dereferenceable(16) %this) #2 comdat align 2 {
entry:
  %this.addr = alloca ptr, align 8
  store ptr %this, ptr %this.addr, align 8, !tbaa !3
  %this1 = load ptr, ptr %this.addr, align 8
  %px = getelementptr inbounds nuw %"class.boost::shared_ptr.21", ptr %this1, i32 0, i32 0
  %0 = load ptr, ptr %px, align 8, !tbaa !46
  %cmp = icmp ne ptr %0, null
  %lnot = xor i1 %cmp, true
  %lnot2 = xor i1 %lnot, true
  %conv = zext i1 %lnot2 to i64
  %expval = call i64 @llvm.expect.i64(i64 %conv, i64 1)
  %tobool = icmp ne i64 %expval, 0
  br i1 %tobool, label %cond.true, label %cond.false

cond.true:                                        ; preds = %entry
  br label %cond.end

cond.false:                                       ; preds = %entry
  call void @_ZN5boost16assertion_failedEPKcS1_S1_l(ptr noundef @.str.5, ptr noundef @__PRETTY_FUNCTION__._ZNK5boost10shared_ptrIN8QuantLib18ZeroInflationIndexEEptEv, ptr noundef @.str.6, i64 noundef 784)
  br label %cond.end

cond.end:                                         ; preds = %cond.false, %cond.true
  %px3 = getelementptr inbounds nuw %"class.boost::shared_ptr.21", ptr %this1, i32 0, i32 0
  %1 = load ptr, ptr %px3, align 8, !tbaa !46
  ret ptr %1
}

; Function Attrs: mustprogress uwtable
define void @_ZNK8QuantLib21ZeroInflationCashFlow19performCalculationsEv(ptr noundef nonnull align 8 dereferenceable(136) %this) unnamed_addr #2 align 2 {
entry:
  %this.addr = alloca ptr, align 8
  %I0 = alloca double, align 8
  %I1 = alloca double, align 8
  %ref.tmp = alloca %"class.QuantLib::Date", align 8
  %ref.tmp8 = alloca %"class.QuantLib::Date", align 8
  store ptr %this, ptr %this.addr, align 8, !tbaa !3
  %this1 = load ptr, ptr %this.addr, align 8
  call void @llvm.lifetime.start.p0(i64 8, ptr %I0) #14
  call void @llvm.lifetime.start.p0(i64 8, ptr %I1) #14
  %observationInterpolation_ = getelementptr inbounds nuw %"class.QuantLib::ZeroInflationCashFlow", ptr %this1, i32 0, i32 2
  %0 = load i32, ptr %observationInterpolation_, align 8, !tbaa !29
  %cmp = icmp eq i32 %0, 0
  br i1 %cmp, label %if.then, label %if.else

if.then:                                          ; preds = %entry
  %zeroInflationIndex_ = getelementptr inbounds nuw %"class.QuantLib::ZeroInflationCashFlow", ptr %this1, i32 0, i32 1
  %call = call noundef ptr @_ZNK5boost10shared_ptrIN8QuantLib18ZeroInflationIndexEEptEv(ptr noundef nonnull align 8 dereferenceable(16) %zeroInflationIndex_)
  call void @llvm.lifetime.start.p0(i64 8, ptr %ref.tmp) #14
  %vtable = load ptr, ptr %this1, align 8, !tbaa !20
  %vfn = getelementptr inbounds ptr, ptr %vtable, i64 9
  %1 = load ptr, ptr %vfn, align 8
  %call2 = call i64 %1(ptr noundef nonnull align 8 dereferenceable(81) %this1)
  %coerce.dive = getelementptr inbounds nuw %"class.QuantLib::Date", ptr %ref.tmp, i32 0, i32 0
  store i64 %call2, ptr %coerce.dive, align 8
  %vtable3 = load ptr, ptr %call, align 8, !tbaa !20
  %vfn4 = getelementptr inbounds ptr, ptr %vtable3, i64 5
  %2 = load ptr, ptr %vfn4, align 8
  %call5 = call noundef double %2(ptr noundef nonnull align 8 dereferenceable(248) %call, ptr noundef nonnull align 8 dereferenceable(8) %ref.tmp, i1 noundef zeroext false)
  store double %call5, ptr %I0, align 8, !tbaa !24
  call void @llvm.lifetime.end.p0(i64 8, ptr %ref.tmp) #14
  %zeroInflationIndex_6 = getelementptr inbounds nuw %"class.QuantLib::ZeroInflationCashFlow", ptr %this1, i32 0, i32 1
  %call7 = call noundef ptr @_ZNK5boost10shared_ptrIN8QuantLib18ZeroInflationIndexEEptEv(ptr noundef nonnull align 8 dereferenceable(16) %zeroInflationIndex_6)
  call void @llvm.lifetime.start.p0(i64 8, ptr %ref.tmp8) #14
  %vtable9 = load ptr, ptr %this1, align 8, !tbaa !20
  %vfn10 = getelementptr inbounds ptr, ptr %vtable9, i64 10
  %3 = load ptr, ptr %vfn10, align 8
  %call11 = call i64 %3(ptr noundef nonnull align 8 dereferenceable(81) %this1)
  %coerce.dive12 = getelementptr inbounds nuw %"class.QuantLib::Date", ptr %ref.tmp8, i32 0, i32 0
  store i64 %call11, ptr %coerce.dive12, align 8
  %vtable13 = load ptr, ptr %call7, align 8, !tbaa !20
  %vfn14 = getelementptr inbounds ptr, ptr %vtable13, i64 5
  %4 = load ptr, ptr %vfn14, align 8
  %call15 = call noundef double %4(ptr noundef nonnull align 8 dereferenceable(248) %call7, ptr noundef nonnull align 8 dereferenceable(8) %ref.tmp8, i1 noundef zeroext false)
  store double %call15, ptr %I1, align 8, !tbaa !24
  call void @llvm.lifetime.end.p0(i64 8, ptr %ref.tmp8) #14
  br label %if.end

if.else:                                          ; preds = %entry
  %zeroInflationIndex_16 = getelementptr inbounds nuw %"class.QuantLib::ZeroInflationCashFlow", ptr %this1, i32 0, i32 1
  %startDate_ = getelementptr inbounds nuw %"class.QuantLib::ZeroInflationCashFlow", ptr %this1, i32 0, i32 3
  %observationLag_ = getelementptr inbounds nuw %"class.QuantLib::ZeroInflationCashFlow", ptr %this1, i32 0, i32 5
  %observationInterpolation_17 = getelementptr inbounds nuw %"class.QuantLib::ZeroInflationCashFlow", ptr %this1, i32 0, i32 2
  %5 = load i32, ptr %observationInterpolation_17, align 8, !tbaa !29
  %call18 = call noundef double @_ZN8QuantLib3CPI12laggedFixingERKN5boost10shared_ptrINS_18ZeroInflationIndexEEERKNS_4DateERKNS_6PeriodENS0_17InterpolationTypeE(ptr noundef nonnull align 8 dereferenceable(16) %zeroInflationIndex_16, ptr noundef nonnull align 8 dereferenceable(8) %startDate_, ptr noundef nonnull align 4 dereferenceable(8) %observationLag_, i32 noundef %5)
  store double %call18, ptr %I0, align 8, !tbaa !24
  %zeroInflationIndex_19 = getelementptr inbounds nuw %"class.QuantLib::ZeroInflationCashFlow", ptr %this1, i32 0, i32 1
  %endDate_ = getelementptr inbounds nuw %"class.QuantLib::ZeroInflationCashFlow", ptr %this1, i32 0, i32 4
  %observationLag_20 = getelementptr inbounds nuw %"class.QuantLib::ZeroInflationCashFlow", ptr %this1, i32 0, i32 5
  %observationInterpolation_21 = getelementptr inbounds nuw %"class.QuantLib::ZeroInflationCashFlow", ptr %this1, i32 0, i32 2
  %6 = load i32, ptr %observationInterpolation_21, align 8, !tbaa !29
  %call22 = call noundef double @_ZN8QuantLib3CPI12laggedFixingERKN5boost10shared_ptrINS_18ZeroInflationIndexEEERKNS_4DateERKNS_6PeriodENS0_17InterpolationTypeE(ptr noundef nonnull align 8 dereferenceable(16) %zeroInflationIndex_19, ptr noundef nonnull align 8 dereferenceable(8) %endDate_, ptr noundef nonnull align 4 dereferenceable(8) %observationLag_20, i32 noundef %6)
  store double %call22, ptr %I1, align 8, !tbaa !24
  br label %if.end

if.end:                                           ; preds = %if.else, %if.then
  %vtable23 = load ptr, ptr %this1, align 8, !tbaa !20
  %vfn24 = getelementptr inbounds ptr, ptr %vtable23, i64 12
  %7 = load ptr, ptr %vfn24, align 8
  %call25 = call noundef zeroext i1 %7(ptr noundef nonnull align 8 dereferenceable(81) %this1)
  br i1 %call25, label %if.then26, label %if.else30

if.then26:                                        ; preds = %if.end
  %vtable27 = load ptr, ptr %this1, align 8, !tbaa !20
  %vfn28 = getelementptr inbounds ptr, ptr %vtable27, i64 8
  %8 = load ptr, ptr %vfn28, align 8
  %call29 = call noundef double %8(ptr noundef nonnull align 8 dereferenceable(81) %this1)
  %9 = load double, ptr %I1, align 8, !tbaa !24
  %10 = load double, ptr %I0, align 8, !tbaa !24
  %div = fdiv double %9, %10
  %sub = fsub double %div, 1.000000e+00
  %mul = fmul double %call29, %sub
  %amount_ = getelementptr inbounds nuw %"class.QuantLib::IndexedCashFlow", ptr %this1, i32 0, i32 2
  store double %mul, ptr %amount_, align 8, !tbaa !48
  br label %if.end37

if.else30:                                        ; preds = %if.end
  %vtable31 = load ptr, ptr %this1, align 8, !tbaa !20
  %vfn32 = getelementptr inbounds ptr, ptr %vtable31, i64 8
  %11 = load ptr, ptr %vfn32, align 8
  %call33 = call noundef double %11(ptr noundef nonnull align 8 dereferenceable(81) %this1)
  %12 = load double, ptr %I1, align 8, !tbaa !24
  %13 = load double, ptr %I0, align 8, !tbaa !24
  %div34 = fdiv double %12, %13
  %mul35 = fmul double %call33, %div34
  %amount_36 = getelementptr inbounds nuw %"class.QuantLib::IndexedCashFlow", ptr %this1, i32 0, i32 2
  store double %mul35, ptr %amount_36, align 8, !tbaa !48
  br label %if.end37

if.end37:                                         ; preds = %if.else30, %if.then26
  call void @llvm.lifetime.end.p0(i64 8, ptr %I1) #14
  call void @llvm.lifetime.end.p0(i64 8, ptr %I0) #14
  ret void
}