; Function Attrs: mustprogress uwtable
define void @_ZNK8QuantLib21ZeroInflationCashFlow19performCalculationsEv(ptr noundef nonnull align 8 dereferenceable(136) %this) unnamed_addr #8 align 2 {
entry:
  %ref.tmp = alloca %"class.QuantLib::Date", align 8
  %ref.tmp8 = alloca %"class.QuantLib::Date", align 8
  %observationInterpolation_ = getelementptr inbounds nuw i8, ptr %this, i64 104
  %0 = load i32, ptr %observationInterpolation_, align 8, !tbaa !46
  %cmp = icmp eq i32 %0, 0
  %zeroInflationIndex_ = getelementptr inbounds nuw i8, ptr %this, i64 88
  br i1 %cmp, label %if.then, label %if.else

if.then:                                          ; preds = %entry
  %1 = load ptr, ptr %zeroInflationIndex_, align 8, !tbaa !35
  %cmp.not.i = icmp eq ptr %1, null
  br i1 %cmp.not.i, label %cond.false.i, label %_ZNK5boost10shared_ptrIN8QuantLib18ZeroInflationIndexEEptEv.exit, !prof !55

cond.false.i:                                     ; preds = %if.then
  tail call void @_ZN5boost16assertion_failedEPKcS1_S1_l(ptr noundef nonnull @.str.5, ptr noundef nonnull @__PRETTY_FUNCTION__._ZNK5boost10shared_ptrIN8QuantLib18ZeroInflationIndexEEptEv, ptr noundef nonnull @.str.6, i64 noundef 784)
  %.pre.i = load ptr, ptr %zeroInflationIndex_, align 8, !tbaa !35
  br label %_ZNK5boost10shared_ptrIN8QuantLib18ZeroInflationIndexEEptEv.exit

_ZNK5boost10shared_ptrIN8QuantLib18ZeroInflationIndexEEptEv.exit: ; preds = %if.then, %cond.false.i
  %2 = phi ptr [ %1, %if.then ], [ %.pre.i, %cond.false.i ]
  call void @llvm.lifetime.start.p0(i64 8, ptr nonnull %ref.tmp) #18
  %vtable = load ptr, ptr %this, align 8, !tbaa !33
  %vfn = getelementptr inbounds i8, ptr %vtable, i64 72
  %3 = load ptr, ptr %vfn, align 8
  %call2 = tail call i64 %3(ptr noundef nonnull align 8 dereferenceable(81) %this)
  store i64 %call2, ptr %ref.tmp, align 8
  %vtable3 = load ptr, ptr %2, align 8, !tbaa !33
  %vfn4 = getelementptr inbounds i8, ptr %vtable3, i64 40
  %4 = load ptr, ptr %vfn4, align 8
  %call5 = call noundef double %4(ptr noundef nonnull align 8 dereferenceable(248) %2, ptr noundef nonnull align 8 dereferenceable(8) %ref.tmp, i1 noundef zeroext false)
  call void @llvm.lifetime.end.p0(i64 8, ptr nonnull %ref.tmp) #18
  %5 = load ptr, ptr %zeroInflationIndex_, align 8, !tbaa !35
  %cmp.not.i3 = icmp eq ptr %5, null
  br i1 %cmp.not.i3, label %cond.false.i4, label %_ZNK5boost10shared_ptrIN8QuantLib18ZeroInflationIndexEEptEv.exit6, !prof !55

cond.false.i4:                                    ; preds = %_ZNK5boost10shared_ptrIN8QuantLib18ZeroInflationIndexEEptEv.exit
  call void @_ZN5boost16assertion_failedEPKcS1_S1_l(ptr noundef nonnull @.str.5, ptr noundef nonnull @__PRETTY_FUNCTION__._ZNK5boost10shared_ptrIN8QuantLib18ZeroInflationIndexEEptEv, ptr noundef nonnull @.str.6, i64 noundef 784)
  %.pre.i5 = load ptr, ptr %zeroInflationIndex_, align 8, !tbaa !35
  br label %_ZNK5boost10shared_ptrIN8QuantLib18ZeroInflationIndexEEptEv.exit6

_ZNK5boost10shared_ptrIN8QuantLib18ZeroInflationIndexEEptEv.exit6: ; preds = %_ZNK5boost10shared_ptrIN8QuantLib18ZeroInflationIndexEEptEv.exit, %cond.false.i4
  %6 = phi ptr [ %5, %_ZNK5boost10shared_ptrIN8QuantLib18ZeroInflationIndexEEptEv.exit ], [ %.pre.i5, %cond.false.i4 ]
  call void @llvm.lifetime.start.p0(i64 8, ptr nonnull %ref.tmp8) #18
  %vtable9 = load ptr, ptr %this, align 8, !tbaa !33
  %vfn10 = getelementptr inbounds i8, ptr %vtable9, i64 80
  %7 = load ptr, ptr %vfn10, align 8
  %call11 = call i64 %7(ptr noundef nonnull align 8 dereferenceable(81) %this)
  store i64 %call11, ptr %ref.tmp8, align 8
  %vtable13 = load ptr, ptr %6, align 8, !tbaa !33
  %vfn14 = getelementptr inbounds i8, ptr %vtable13, i64 40
  %8 = load ptr, ptr %vfn14, align 8
  %call15 = call noundef double %8(ptr noundef nonnull align 8 dereferenceable(248) %6, ptr noundef nonnull align 8 dereferenceable(8) %ref.tmp8, i1 noundef zeroext false)
  call void @llvm.lifetime.end.p0(i64 8, ptr nonnull %ref.tmp8) #18
  br label %if.end

if.else:                                          ; preds = %entry
  %startDate_ = getelementptr inbounds nuw i8, ptr %this, i64 112
  %observationLag_ = getelementptr inbounds nuw i8, ptr %this, i64 128
  %call18 = tail call noundef double @_ZN8QuantLib3CPI12laggedFixingERKN5boost10shared_ptrINS_18ZeroInflationIndexEEERKNS_4DateERKNS_6PeriodENS0_17InterpolationTypeE(ptr noundef nonnull align 8 dereferenceable(16) %zeroInflationIndex_, ptr noundef nonnull align 8 dereferenceable(8) %startDate_, ptr noundef nonnull align 4 dereferenceable(8) %observationLag_, i32 noundef %0)
  %endDate_ = getelementptr inbounds nuw i8, ptr %this, i64 120
  %9 = load i32, ptr %observationInterpolation_, align 8, !tbaa !46
  %call22 = tail call noundef double @_ZN8QuantLib3CPI12laggedFixingERKN5boost10shared_ptrINS_18ZeroInflationIndexEEERKNS_4DateERKNS_6PeriodENS0_17InterpolationTypeE(ptr noundef nonnull align 8 dereferenceable(16) %zeroInflationIndex_, ptr noundef nonnull align 8 dereferenceable(8) %endDate_, ptr noundef nonnull align 4 dereferenceable(8) %observationLag_, i32 noundef %9)
  br label %if.end

if.end:                                           ; preds = %if.else, %_ZNK5boost10shared_ptrIN8QuantLib18ZeroInflationIndexEEptEv.exit6
  %I0.0 = phi double [ %call5, %_ZNK5boost10shared_ptrIN8QuantLib18ZeroInflationIndexEEptEv.exit6 ], [ %call18, %if.else ]
  %I1.0 = phi double [ %call15, %_ZNK5boost10shared_ptrIN8QuantLib18ZeroInflationIndexEEptEv.exit6 ], [ %call22, %if.else ]
  %vtable23 = load ptr, ptr %this, align 8, !tbaa !33
  %vfn24 = getelementptr inbounds i8, ptr %vtable23, i64 96
  %10 = load ptr, ptr %vfn24, align 8
  %call25 = call noundef zeroext i1 %10(ptr noundef nonnull align 8 dereferenceable(81) %this)
  %vtable27 = load ptr, ptr %this, align 8, !tbaa !33
  %vfn28 = getelementptr inbounds i8, ptr %vtable27, i64 64
  %11 = load ptr, ptr %vfn28, align 8
  %call29 = call noundef double %11(ptr noundef nonnull align 8 dereferenceable(81) %this)
  %div = fdiv double %I1.0, %I0.0
  %sub = fadd double %div, -1.000000e+00
  %div.sink = select i1 %call25, double %sub, double %div
  %mul35 = fmul double %div.sink, %call29
  %12 = getelementptr inbounds nuw i8, ptr %this, i64 24
  store double %mul35, ptr %12, align 8
  ret void
}